target datalayout = "e-m:e-p270:32:32-p271:32:32-p272:64:64-i64:64-i128:128-f80:128-n8:16:32:64-S128"
target triple = "x86_64-pc-linux-gnu"

%"class.llvm::MCInst" = type { i32, i32, %"class.llvm::SMLoc", %"class.llvm::SmallVector" }
%"class.llvm::SMLoc" = type { ptr }
%"class.llvm::SmallVector" = type { %"class.llvm::SmallVectorImpl", %"struct.llvm::SmallVectorStorage" }
%"class.llvm::SmallVectorImpl" = type { %"class.llvm::SmallVectorTemplateBase" }
%"class.llvm::SmallVectorTemplateBase" = type { %"class.llvm::SmallVectorTemplateCommon" }
%"class.llvm::SmallVectorTemplateCommon" = type { %"class.llvm::SmallVectorBase" }
%"class.llvm::SmallVectorBase" = type { ptr, i32, i32 }
%"struct.llvm::SmallVectorStorage" = type { [96 x i8] }
%"class.llvm::MCOperand" = type { i8, %union.anon }
%union.anon = type { i64 }

; Function Attrs: mustprogress nounwind uwtable
define linkonce_odr hidden noundef ptr @_ZNK4llvm25SmallVectorTemplateCommonINS_9MCOperandEvE5beginEv(ptr noundef nonnull align 8 dereferenceable(16) %0) #0 comdat align 2 {
  %2 = alloca ptr, align 8
  store ptr %0, ptr %2, align 8
  %3 = load ptr, ptr %2, align 8
  %4 = getelementptr inbounds nuw %"class.llvm::SmallVectorBase", ptr %3, i32 0, i32 0
  %5 = load ptr, ptr %4, align 8
  ret ptr %5
}

; Function Attrs: mustprogress nounwind uwtable
define internal noundef i32 @_ZN4llvm10AArch64_AML13getExtendTypeEj(i32 noundef %0) #0 {
  %2 = alloca i32, align 4
  %3 = alloca i32, align 4
  store i32 %0, ptr %3, align 4
  %4 = load i32, ptr %3, align 4
  switch i32 %4, label %5 [
    i32 0, label %6
    i32 1, label %7
    i32 2, label %8
    i32 3, label %9
    i32 4, label %10
    i32 5, label %11
    i32 6, label %12
    i32 7, label %13
  ]

5:                                                ; preds = %1
  unreachable

6:                                                ; preds = %1
  store i32 5, ptr %2, align 4
  br label %14

7:                                                ; preds = %1
  store i32 6, ptr %2, align 4
  br label %14

8:                                                ; preds = %1
  store i32 7, ptr %2, align 4
  br label %14

9:                                                ; preds = %1
  store i32 8, ptr %2, align 4
  br label %14

10:                                               ; preds = %1
  store i32 9, ptr %2, align 4
  br label %14

11:                                               ; preds = %1
  store i32 10, ptr %2, align 4
  br label %14

12:                                               ; preds = %1
  store i32 11, ptr %2, align 4
  br label %14

13:                                               ; preds = %1
  store i32 12, ptr %2, align 4
  br label %14

14:                                               ; preds = %13, %12, %11, %10, %9, %8, %7, %6
  %15 = load i32, ptr %2, align 4
  ret i32 %15
}

; Function Attrs: mustprogress nounwind uwtable
define linkonce_odr hidden noundef nonnull align 8 dereferenceable(16) ptr @_ZNK4llvm25SmallVectorTemplateCommonINS_9MCOperandEvEixEm(ptr noundef nonnull align 8 dereferenceable(16) %0, i64 noundef %1) #0 comdat align 2 {
  %3 = alloca ptr, align 8
  %4 = alloca i64, align 8
  store ptr %0, ptr %3, align 8
  store i64 %1, ptr %4, align 8
  %5 = load ptr, ptr %3, align 8
  %6 = call noundef ptr @_ZNK4llvm25SmallVectorTemplateCommonINS_9MCOperandEvE5beginEv(ptr noundef nonnull align 8 dereferenceable(16) %5)
  %7 = load i64, ptr %4, align 8
  %8 = getelementptr inbounds %"class.llvm::MCOperand", ptr %6, i64 %7
  ret ptr %8
}

; Function Attrs: mustprogress nounwind uwtable
define internal noundef zeroext i1 @_ZN4llvm10AArch64_AML13getMemDoShiftEj(i32 noundef %0) #0 {
  %2 = alloca i32, align 4
  store i32 %0, ptr %2, align 4
  %3 = load i32, ptr %2, align 4
  %4 = and i32 %3, 1
  %5 = icmp ne i32 %4, 0
  ret i1 %5
}

; Function Attrs: mustprogress nounwind uwtable
define internal noundef i32 @_ZN4llvm10AArch64_AML16getMemExtendTypeEj(i32 noundef %0) #0 {
  %2 = alloca i32, align 4
  store i32 %0, ptr %2, align 4
  %3 = load i32, ptr %2, align 4
  %4 = lshr i32 %3, 1
  %5 = and i32 %4, 7
  %6 = call noundef i32 @_ZN4llvm10AArch64_AML13getExtendTypeEj(i32 noundef %5)
  ret i32 %6
}

; Function Attrs: mustprogress nounwind uwtable
define linkonce_odr hidden noundef i64 @_ZNK4llvm9MCOperand6getImmEv(ptr noundef nonnull align 8 dereferenceable(16) %0) #0 comdat align 2 {
  %2 = alloca ptr, align 8
  store ptr %0, ptr %2, align 8
  %3 = load ptr, ptr %2, align 8
  %4 = getelementptr inbounds nuw %"class.llvm::MCOperand", ptr %3, i32 0, i32 1
  %5 = load i64, ptr %4, align 8
  ret i64 %5
}

; Function Attrs: mustprogress nounwind uwtable
define linkonce_odr hidden noundef nonnull align 8 dereferenceable(16) ptr @_ZNK4llvm6MCInst10getOperandEj(ptr noundef nonnull align 8 dereferenceable(128) %0, i32 noundef %1) #0 comdat align 2 {
  %3 = alloca ptr, align 8
  %4 = alloca i32, align 4
  store ptr %0, ptr %3, align 8
  store i32 %1, ptr %4, align 4
  %5 = load ptr, ptr %3, align 8
  %6 = getelementptr inbounds nuw %"class.llvm::MCInst", ptr %5, i32 0, i32 3
  %7 = load i32, ptr %4, align 4
  %8 = zext i32 %7 to i64
  %9 = call noundef nonnull align 8 dereferenceable(16) ptr @_ZNK4llvm25SmallVectorTemplateCommonINS_9MCOperandEvEixEm(ptr noundef nonnull align 8 dereferenceable(16) %6, i64 noundef %8)
  ret ptr %9
}

; Function Attrs: mustprogress nounwind uwtable
define linkonce_odr hidden noundef i32 @_ZNK4llvm6MCInst9getOpcodeEv(ptr noundef nonnull align 8 dereferenceable(128) %0) #0 comdat align 2 {
  %2 = alloca ptr, align 8
  store ptr %0, ptr %2, align 8
  %3 = load ptr, ptr %2, align 8
  %4 = getelementptr inbounds nuw %"class.llvm::MCInst", ptr %3, i32 0, i32 0
  %5 = load i32, ptr %4, align 8
  ret i32 %5
}

; Function Attrs: mustprogress nounwind uwtable
define dso_local noundef zeroext i1 @_ZN4llvm10AArch64_MC18isExynosScaledAddrERKNS_6MCInstE(ptr noundef nonnull align 8 dereferenceable(128) %0) #0 {
  %2 = alloca i1, align 1
  %3 = alloca ptr, align 8
  store ptr %0, ptr %3, align 8
  %4 = load ptr, ptr %3, align 8
  %5 = call noundef i32 @_ZNK4llvm6MCInst9getOpcodeEv(ptr noundef nonnull align 8 dereferenceable(128) %4)
  switch i32 %5, label %28 [
    i32 4980, label %6
    i32 4981, label %6
    i32 4378, label %6
    i32 4379, label %6
    i32 4410, label %6
    i32 4411, label %6
    i32 4415, label %6
    i32 4416, label %6
    i32 4394, label %6
    i32 4395, label %6
    i32 4420, label %6
    i32 4421, label %6
    i32 4425, label %6
    i32 4426, label %6
    i32 4443, label %6
    i32 4444, label %6
    i32 4431, label %6
    i32 4432, label %6
    i32 4449, label %6
    i32 4450, label %6
    i32 4383, label %6
    i32 4384, label %6
    i32 4399, label %6
    i32 4400, label %6
    i32 4437, label %6
    i32 4438, label %6
    i32 4389, label %6
    i32 4390, label %6
    i32 4405, label %6
    i32 4406, label %6
    i32 6754, label %6
    i32 6755, label %6
    i32 6769, label %6
    i32 6770, label %6
    i32 6789, label %6
    i32 6790, label %6
    i32 6794, label %6
    i32 6795, label %6
    i32 6759, label %6
    i32 6760, label %6
    i32 6774, label %6
    i32 6775, label %6
    i32 6784, label %6
    i32 6785, label %6
    i32 6764, label %6
    i32 6765, label %6
    i32 6779, label %6
    i32 6780, label %6
  ]

6:                                                ; preds = %1, %1, %1, %1, %1, %1, %1, %1, %1, %1, %1, %1, %1, %1, %1, %1, %1, %1, %1, %1, %1, %1, %1, %1, %1, %1, %1, %1, %1, %1, %1, %1, %1, %1, %1, %1, %1, %1, %1, %1, %1, %1, %1, %1, %1, %1, %1, %1
  %7 = load ptr, ptr %3, align 8
  %8 = call noundef nonnull align 8 dereferenceable(16) ptr @_ZNK4llvm6MCInst10getOperandEj(ptr noundef nonnull align 8 dereferenceable(128) %7, i32 noundef 3)
  %9 = call noundef i64 @_ZNK4llvm9MCOperand6getImmEv(ptr noundef nonnull align 8 dereferenceable(16) %8)
  %10 = trunc i64 %9 to i32
  %11 = call noundef i32 @_ZN4llvm10AArch64_AML16getMemExtendTypeEj(i32 noundef %10)
  %12 = icmp eq i32 %11, 11
  br i1 %12, label %26, label %13

13:                                               ; preds = %6
  %14 = load ptr, ptr %3, align 8
  %15 = call noundef nonnull align 8 dereferenceable(16) ptr @_ZNK4llvm6MCInst10getOperandEj(ptr noundef nonnull align 8 dereferenceable(128) %14, i32 noundef 3)
  %16 = call noundef i64 @_ZNK4llvm9MCOperand6getImmEv(ptr noundef nonnull align 8 dereferenceable(16) %15)
  %17 = trunc i64 %16 to i32
  %18 = call noundef i32 @_ZN4llvm10AArch64_AML16getMemExtendTypeEj(i32 noundef %17)
  %19 = icmp eq i32 %18, 7
  br i1 %19, label %26, label %20

20:                                               ; preds = %13
  %21 = load ptr, ptr %3, align 8
  %22 = call noundef nonnull align 8 dereferenceable(16) ptr @_ZNK4llvm6MCInst10getOperandEj(ptr noundef nonnull align 8 dereferenceable(128) %21, i32 noundef 4)
  %23 = call noundef i64 @_ZNK4llvm9MCOperand6getImmEv(ptr noundef nonnull align 8 dereferenceable(16) %22)
  %24 = trunc i64 %23 to i32
  %25 = call noundef zeroext i1 @_ZN4llvm10AArch64_AML13getMemDoShiftEj(i32 noundef %24)
  br label %26

26:                                               ; preds = %20, %13, %6
  %27 = phi i1 [ true, %13 ], [ true, %6 ], [ %25, %20 ]
  store i1 %27, ptr %2, align 1
  br label %29

28:                                               ; preds = %1
  store i1 false, ptr %2, align 1
  br label %29

29:                                               ; preds = %28, %26
  %30 = load i1, ptr %2, align 1
  ret i1 %30
}