; Function Attrs: mustprogress nofree norecurse nosync nounwind willreturn memory(read, inaccessiblemem: none) uwtable
define dso_local noundef zeroext i1 @_ZN4llvm10AArch64_MC18isExynosScaledAddrERKNS_6MCInstE(ptr noundef nonnull readonly align 8 captures(none) dereferenceable(128) %0) local_unnamed_addr #0 {
  %2 = load i32, ptr %0, align 8
  switch i32 %2, label %_ZN4llvm10AArch64_AML16getMemExtendTypeEj.exit [
    i32 4980, label %3
    i32 4981, label %3
    i32 4378, label %3
    i32 4379, label %3
    i32 4410, label %3
    i32 4411, label %3
    i32 4415, label %3
    i32 4416, label %3
    i32 4394, label %3
    i32 4395, label %3
    i32 4420, label %3
    i32 4421, label %3
    i32 4425, label %3
    i32 4426, label %3
    i32 4443, label %3
    i32 4444, label %3
    i32 4431, label %3
    i32 4432, label %3
    i32 4449, label %3
    i32 4450, label %3
    i32 4383, label %3
    i32 4384, label %3
    i32 4399, label %3
    i32 4400, label %3
    i32 4437, label %3
    i32 4438, label %3
    i32 4389, label %3
    i32 4390, label %3
    i32 4405, label %3
    i32 4406, label %3
    i32 6754, label %3
    i32 6755, label %3
    i32 6769, label %3
    i32 6770, label %3
    i32 6789, label %3
    i32 6790, label %3
    i32 6794, label %3
    i32 6795, label %3
    i32 6759, label %3
    i32 6760, label %3
    i32 6774, label %3
    i32 6775, label %3
    i32 6784, label %3
    i32 6785, label %3
    i32 6764, label %3
    i32 6765, label %3
    i32 6779, label %3
    i32 6780, label %3
  ]

3:                                                ; preds = %1, %1, %1, %1, %1, %1, %1, %1, %1, %1, %1, %1, %1, %1, %1, %1, %1, %1, %1, %1, %1, %1, %1, %1, %1, %1, %1, %1, %1, %1, %1, %1, %1, %1, %1, %1, %1, %1, %1, %1, %1, %1, %1, %1, %1, %1, %1, %1
  %4 = getelementptr inbounds nuw i8, ptr %0, i64 16
  %5 = load ptr, ptr %4, align 8
  %6 = getelementptr inbounds nuw i8, ptr %5, i64 56
  %7 = load i64, ptr %6, align 8
  %8 = trunc i64 %7 to i32
  %9 = lshr i32 %8, 1
  %10 = and i32 %9, 7
  switch i32 %10, label %default.unreachable [
    i32 0, label %.thread
    i32 1, label %.thread
    i32 2, label %_ZN4llvm10AArch64_AML16getMemExtendTypeEj.exit
    i32 3, label %.thread
    i32 4, label %.thread
    i32 5, label %.thread
    i32 6, label %_ZN4llvm10AArch64_AML16getMemExtendTypeEj.exit
    i32 7, label %.thread
  ]

default.unreachable:                              ; preds = %3
  unreachable

.thread:                                          ; preds = %3, %3, %3, %3, %3, %3
  %11 = getelementptr inbounds nuw i8, ptr %5, i64 72
  %12 = load i64, ptr %11, align 8
  %13 = and i64 %12, 1
  %14 = icmp ne i64 %13, 0
  br label %_ZN4llvm10AArch64_AML16getMemExtendTypeEj.exit

_ZN4llvm10AArch64_AML16getMemExtendTypeEj.exit:   ; preds = %3, %3, %1, %.thread
  %.0 = phi i1 [ %14, %.thread ], [ false, %1 ], [ true, %3 ], [ true, %3 ]
  ret i1 %.0
}